; Function Attrs: mustprogress nofree norecurse nosync nounwind willreturn memory(readwrite, inaccessiblemem: none) uwtable
define internal void @_ZL28hb_paint_extents_paint_colorP16hb_paint_funcs_tPvijS1_(ptr nocapture readnone %0, ptr nocapture noundef readonly %1, i32 %2, i32 %3, ptr nocapture readnone %4) #5 {
  %6 = getelementptr inbounds i8, ptr %1, i64 20
  %7 = load i32, ptr %6, align 4
  %.not.i.not.i.i = icmp eq i32 %7, 0
  br i1 %.not.i.not.i.i, label %8, label %9

8:                                                ; preds = %5
  tail call void @llvm.memcpy.p0.p0.i64(ptr noundef nonnull align 16 dereferenceable(20) @_hb_CrapPool, ptr noundef nonnull align 16 dereferenceable(20) @_hb_NullPool, i64 20, i1 false)
  br label %_ZN11hb_vector_tI11hb_bounds_tLb0EE4tailEv.exit.i

9:                                                ; preds = %5
  %10 = add i32 %7, -1
  %11 = getelementptr inbounds i8, ptr %1, i64 24
  %12 = load ptr, ptr %11, align 8
  %13 = zext i32 %10 to i64
  %14 = getelementptr inbounds %struct.hb_bounds_t, ptr %12, i64 %13
  br label %_ZN11hb_vector_tI11hb_bounds_tLb0EE4tailEv.exit.i

_ZN11hb_vector_tI11hb_bounds_tLb0EE4tailEv.exit.i: ; preds = %9, %8
  %.0.i.i.i = phi ptr [ @_hb_CrapPool, %8 ], [ %14, %9 ]
  %15 = getelementptr inbounds i8, ptr %1, i64 36
  %16 = load i32, ptr %15, align 4
  %.not.i.not.i3.i = icmp eq i32 %16, 0
  br i1 %.not.i.not.i3.i, label %17, label %18

17:                                               ; preds = %_ZN11hb_vector_tI11hb_bounds_tLb0EE4tailEv.exit.i
  tail call void @llvm.memcpy.p0.p0.i64(ptr noundef nonnull align 16 dereferenceable(20) @_hb_CrapPool, ptr noundef nonnull align 16 dereferenceable(20) @_hb_NullPool, i64 20, i1 false)
  br label %_ZN11hb_vector_tI11hb_bounds_tLb0EE4tailEv.exit5.i

18:                                               ; preds = %_ZN11hb_vector_tI11hb_bounds_tLb0EE4tailEv.exit.i
  %19 = add i32 %16, -1
  %20 = getelementptr inbounds i8, ptr %1, i64 40
  %21 = load ptr, ptr %20, align 8
  %22 = zext i32 %19 to i64
  %23 = getelementptr inbounds %struct.hb_bounds_t, ptr %21, i64 %22
  br label %_ZN11hb_vector_tI11hb_bounds_tLb0EE4tailEv.exit5.i

_ZN11hb_vector_tI11hb_bounds_tLb0EE4tailEv.exit5.i: ; preds = %18, %17
  %.0.i.i4.i = phi ptr [ @_hb_CrapPool, %17 ], [ %23, %18 ]
  %24 = load i32, ptr %.0.i.i.i, align 4
  switch i32 %24, label %_ZN26hb_paint_extents_context_t5paintEv.exit [
    i32 0, label %25
    i32 1, label %26
  ]

25:                                               ; preds = %_ZN11hb_vector_tI11hb_bounds_tLb0EE4tailEv.exit5.i
  store i32 0, ptr %.0.i.i4.i, align 4
  br label %_ZN26hb_paint_extents_context_t5paintEv.exit

26:                                               ; preds = %_ZN11hb_vector_tI11hb_bounds_tLb0EE4tailEv.exit5.i
  %27 = load i32, ptr %.0.i.i4.i, align 4
  switch i32 %27, label %_ZN26hb_paint_extents_context_t5paintEv.exit [
    i32 2, label %28
    i32 1, label %29
  ]

28:                                               ; preds = %26
  tail call void @llvm.memcpy.p0.p0.i64(ptr noundef nonnull align 4 dereferenceable(20) %.0.i.i4.i, ptr noundef nonnull align 4 dereferenceable(20) %.0.i.i.i, i64 20, i1 false)
  br label %_ZN26hb_paint_extents_context_t5paintEv.exit

29:                                               ; preds = %26
  %30 = getelementptr inbounds i8, ptr %.0.i.i4.i, i64 4
  %31 = getelementptr inbounds i8, ptr %.0.i.i.i, i64 4
  %32 = load float, ptr %30, align 4
  %33 = load float, ptr %31, align 4
  %34 = fcmp ole float %32, %33
  %35 = select i1 %34, float %32, float %33
  store float %35, ptr %30, align 4
  %36 = getelementptr inbounds i8, ptr %.0.i.i4.i, i64 8
  %37 = getelementptr inbounds i8, ptr %.0.i.i.i, i64 8
  %38 = load float, ptr %36, align 4
  %39 = load float, ptr %37, align 4
  %40 = fcmp ole float %38, %39
  %41 = select i1 %40, float %38, float %39
  store float %41, ptr %36, align 4
  %42 = getelementptr inbounds i8, ptr %.0.i.i4.i, i64 12
  %43 = getelementptr inbounds i8, ptr %.0.i.i.i, i64 12
  %44 = load float, ptr %42, align 4
  %45 = load float, ptr %43, align 4
  %46 = fcmp oge float %44, %45
  %47 = select i1 %46, float %44, float %45
  store float %47, ptr %42, align 4
  %48 = getelementptr inbounds i8, ptr %.0.i.i4.i, i64 16
  %49 = getelementptr inbounds i8, ptr %.0.i.i.i, i64 16
  %50 = load float, ptr %48, align 4
  %51 = load float, ptr %49, align 4
  %52 = fcmp oge float %50, %51
  %53 = select i1 %52, float %50, float %51
  store float %53, ptr %48, align 4
  br label %_ZN26hb_paint_extents_context_t5paintEv.exit

_ZN26hb_paint_extents_context_t5paintEv.exit:     ; preds = %_ZN11hb_vector_tI11hb_bounds_tLb0EE4tailEv.exit5.i, %25, %26, %28, %29
  ret void
}